target datalayout = "e-m:e-p270:32:32-p271:32:32-p272:64:64-i64:64-i128:128-f80:128-n8:16:32:64-S128"
target triple = "x86_64-pc-linux-gnu"

%"class.icu_77::SpoofData" = type { ptr, i8, ptr, i32, %"struct.std::atomic", ptr, ptr, ptr }
%"struct.std::atomic" = type { %"struct.std::__atomic_base" }
%"struct.std::__atomic_base" = type { i32 }
%"struct.icu_77::SpoofDataHeader" = type { i32, [4 x i8], i32, i32, i32, i32, i32, i32, i32, [15 x i32] }

; Function Attrs: inlinehint mustprogress nounwind uwtable
define internal noundef signext i8 @_ZL9U_FAILURE10UErrorCode(i32 noundef %0) #2 {
  %2 = alloca i32, align 4
  store i32 %0, ptr %2, align 4, !tbaa !30
  %3 = load i32, ptr %2, align 4, !tbaa !30
  %4 = icmp sgt i32 %3, 0
  %5 = zext i1 %4 to i8
  ret i8 %5
}

; Function Attrs: mustprogress uwtable
define noundef signext i8 @_ZNK6icu_779SpoofData19validateDataVersionER10UErrorCode(ptr noundef nonnull align 8 dereferenceable(56) %0, ptr noundef nonnull align 4 dereferenceable(4) %1) #1 align 2 {
  %3 = alloca i8, align 1
  %4 = alloca ptr, align 8
  %5 = alloca ptr, align 8
  store ptr %0, ptr %4, align 8, !tbaa !8
  store ptr %1, ptr %5, align 8, !tbaa !10
  %6 = load ptr, ptr %4, align 8
  %7 = load ptr, ptr %5, align 8, !tbaa !10
  %8 = load i32, ptr %7, align 4, !tbaa !30
  %9 = call noundef signext i8 @_ZL9U_FAILURE10UErrorCode(i32 noundef %8)
  %10 = icmp ne i8 %9, 0
  br i1 %10, label %53, label %11

11:                                               ; preds = %2
  %12 = getelementptr inbounds nuw %"class.icu_77::SpoofData", ptr %6, i32 0, i32 0
  %13 = load ptr, ptr %12, align 8, !tbaa !35
  %14 = icmp eq ptr %13, null
  br i1 %14, label %53, label %15

15:                                               ; preds = %11
  %16 = getelementptr inbounds nuw %"class.icu_77::SpoofData", ptr %6, i32 0, i32 0
  %17 = load ptr, ptr %16, align 8, !tbaa !35
  %18 = getelementptr inbounds nuw %"struct.icu_77::SpoofDataHeader", ptr %17, i32 0, i32 0
  %19 = load i32, ptr %18, align 4, !tbaa !44
  %20 = icmp ne i32 %19, 944111087
  br i1 %20, label %53, label %21

21:                                               ; preds = %15
  %22 = getelementptr inbounds nuw %"class.icu_77::SpoofData", ptr %6, i32 0, i32 0
  %23 = load ptr, ptr %22, align 8, !tbaa !35
  %24 = getelementptr inbounds nuw %"struct.icu_77::SpoofDataHeader", ptr %23, i32 0, i32 1
  %25 = getelementptr inbounds [4 x i8], ptr %24, i64 0, i64 0
  %26 = load i8, ptr %25, align 4, !tbaa !46
  %27 = zext i8 %26 to i32
  %28 = icmp ne i32 %27, 2
  br i1 %28, label %53, label %29

29:                                               ; preds = %21
  %30 = getelementptr inbounds nuw %"class.icu_77::SpoofData", ptr %6, i32 0, i32 0
  %31 = load ptr, ptr %30, align 8, !tbaa !35
  %32 = getelementptr inbounds nuw %"struct.icu_77::SpoofDataHeader", ptr %31, i32 0, i32 1
  %33 = getelementptr inbounds [4 x i8], ptr %32, i64 0, i64 1
  %34 = load i8, ptr %33, align 1, !tbaa !46
  %35 = zext i8 %34 to i32
  %36 = icmp ne i32 %35, 0
  br i1 %36, label %53, label %37

37:                                               ; preds = %29
  %38 = getelementptr inbounds nuw %"class.icu_77::SpoofData", ptr %6, i32 0, i32 0
  %39 = load ptr, ptr %38, align 8, !tbaa !35
  %40 = getelementptr inbounds nuw %"struct.icu_77::SpoofDataHeader", ptr %39, i32 0, i32 1
  %41 = getelementptr inbounds [4 x i8], ptr %40, i64 0, i64 2
  %42 = load i8, ptr %41, align 2, !tbaa !46
  %43 = zext i8 %42 to i32
  %44 = icmp ne i32 %43, 0
  br i1 %44, label %53, label %45

45:                                               ; preds = %37
  %46 = getelementptr inbounds nuw %"class.icu_77::SpoofData", ptr %6, i32 0, i32 0
  %47 = load ptr, ptr %46, align 8, !tbaa !35
  %48 = getelementptr inbounds nuw %"struct.icu_77::SpoofDataHeader", ptr %47, i32 0, i32 1
  %49 = getelementptr inbounds [4 x i8], ptr %48, i64 0, i64 3
  %50 = load i8, ptr %49, align 1, !tbaa !46
  %51 = zext i8 %50 to i32
  %52 = icmp ne i32 %51, 0
  br i1 %52, label %53, label %55

53:                                               ; preds = %45, %37, %29, %21, %15, %11, %2
  %54 = load ptr, ptr %5, align 8, !tbaa !10
  store i32 3, ptr %54, align 4, !tbaa !30
  store i8 0, ptr %3, align 1
  br label %56

55:                                               ; preds = %45
  store i8 1, ptr %3, align 1
  br label %56

56:                                               ; preds = %55, %53
  %57 = load i8, ptr %3, align 1
  ret i8 %57
}