; Function Attrs: mustprogress nofree norecurse nosync nounwind willreturn memory(read, argmem: readwrite, inaccessiblemem: none) uwtable
define noundef signext range(i8 0, 2) i8 @_ZNK6icu_779SpoofData19validateDataVersionER10UErrorCode(ptr noundef nonnull readonly align 8 captures(none) dereferenceable(56) %0, ptr noundef nonnull align 4 captures(none) dereferenceable(4) %1) local_unnamed_addr #9 align 2 {
  %3 = load i32, ptr %1, align 4, !tbaa !19
  %4 = icmp slt i32 %3, 1
  br i1 %4, label %5, label %22

5:                                                ; preds = %2
  %6 = load ptr, ptr %0, align 8, !tbaa !29
  %7 = icmp eq ptr %6, null
  br i1 %7, label %22, label %8

8:                                                ; preds = %5
  %9 = load i32, ptr %6, align 4, !tbaa !36
  %.not4 = icmp eq i32 %9, 944111087
  br i1 %.not4, label %10, label %22

10:                                               ; preds = %8
  %11 = getelementptr inbounds nuw i8, ptr %6, i64 4
  %12 = load i8, ptr %11, align 4, !tbaa !38
  %.not5 = icmp eq i8 %12, 2
  br i1 %.not5, label %13, label %22

13:                                               ; preds = %10
  %14 = getelementptr inbounds nuw i8, ptr %6, i64 5
  %15 = load i8, ptr %14, align 1, !tbaa !38
  %.not6 = icmp eq i8 %15, 0
  br i1 %.not6, label %16, label %22

16:                                               ; preds = %13
  %17 = getelementptr inbounds nuw i8, ptr %6, i64 6
  %18 = load i8, ptr %17, align 2, !tbaa !38
  %.not7 = icmp eq i8 %18, 0
  br i1 %.not7, label %19, label %22

19:                                               ; preds = %16
  %20 = getelementptr inbounds nuw i8, ptr %6, i64 7
  %21 = load i8, ptr %20, align 1, !tbaa !38
  %.not8 = icmp eq i8 %21, 0
  br i1 %.not8, label %23, label %22

22:                                               ; preds = %19, %16, %13, %10, %8, %5, %2
  store i32 3, ptr %1, align 4, !tbaa !19
  br label %23

23:                                               ; preds = %19, %22
  %.0 = phi i8 [ 0, %22 ], [ 1, %19 ]
  ret i8 %.0
}